target datalayout = "e-m:e-p270:32:32-p271:32:32-p272:64:64-i64:64-i128:128-f80:128-n8:16:32:64-S128"
target triple = "x86_64-pc-linux-gnu"

%"class.QtPrivate::RefCount" = type { %class.QBasicAtomicInteger }
%class.QBasicAtomicInteger = type { %"struct.std::atomic" }
%"struct.std::atomic" = type { %"struct.std::__atomic_base" }
%"struct.std::__atomic_base" = type { i32 }
%struct.QMapDataBase = type { %"class.QtPrivate::RefCount", i32, %struct.QMapNodeBase, ptr }
%struct.QMapNodeBase = type { i64, ptr, ptr }
%class.QWidget = type { %class.QObject, %class.QPaintDevice, ptr }
%class.QObject = type { ptr, %class.QScopedPointer }
%class.QScopedPointer = type { ptr }
%class.QPaintDevice = type { ptr, i16, ptr }
%class.QString = type { ptr }
%class.MLRenderingParametersTab = type { %class.QTabWidget, i32, %class.QMap.10, %class.QVector }
%class.QTabWidget = type { %class.QWidget }
%class.QMap.10 = type { ptr }
%class.QVector = type { ptr }
%struct.QMapNode.13 = type { %struct.QMapNodeBase, %class.QString, ptr }
%"class.QMap<QString, MLRenderingParametersFrame *>::iterator" = type { ptr }

; Function Attrs: noreturn nounwind uwtable
define linkonce_odr hidden void @__clang_call_terminate(ptr noundef %0) #8 comdat {
  %2 = call ptr @__cxa_begin_catch(ptr %0) #3
  call void @_ZSt9terminatev() #17
  unreachable
}

; Function Attrs: mustprogress nounwind uwtable
define linkonce_odr noundef i32 @_ZStanSt12memory_orderSt23__memory_order_modifier(i32 noundef %0, i32 noundef %1) #4 comdat {
  %3 = alloca i32, align 4
  %4 = alloca i32, align 4
  store i32 %0, ptr %3, align 4
  store i32 %1, ptr %4, align 4
  %5 = load i32, ptr %3, align 4
  %6 = load i32, ptr %4, align 4
  %7 = and i32 %5, %6
  ret i32 %7
}

; Function Attrs: mustprogress nounwind uwtable
define linkonce_odr noundef i32 @_ZN10QAtomicOpsIiE11loadRelaxedIiEET_RKSt6atomicIS2_E(ptr noundef nonnull align 4 dereferenceable(4) %0) #4 comdat align 2 personality ptr @__gxx_personality_v0 {
  %2 = alloca ptr, align 8
  %3 = alloca i32, align 4
  %4 = alloca i32, align 4
  %5 = alloca i32, align 4
  %6 = alloca ptr, align 8
  store ptr %0, ptr %6, align 8
  %7 = load ptr, ptr %6, align 8
  store ptr %7, ptr %2, align 8
  store i32 0, ptr %3, align 4
  %8 = load ptr, ptr %2, align 8
  %9 = load i32, ptr %3, align 4
  %10 = invoke noundef i32 @_ZStanSt12memory_orderSt23__memory_order_modifier(i32 noundef %9, i32 noundef 65535)
          to label %11 unwind label %19

11:                                               ; preds = %1
  store i32 %10, ptr %4, align 4
  %12 = load i32, ptr %3, align 4
  switch i32 %12, label %13 [
    i32 1, label %15
    i32 2, label %15
    i32 5, label %17
  ]

13:                                               ; preds = %11
  %14 = load atomic i32, ptr %8 monotonic, align 4
  store i32 %14, ptr %5, align 4
  br label %22

15:                                               ; preds = %11, %11
  %16 = load atomic i32, ptr %8 acquire, align 4
  store i32 %16, ptr %5, align 4
  br label %22

17:                                               ; preds = %11
  %18 = load atomic i32, ptr %8 seq_cst, align 4
  store i32 %18, ptr %5, align 4
  br label %22

19:                                               ; preds = %1
  %20 = landingpad { ptr, i32 }
          catch ptr null
  %21 = extractvalue { ptr, i32 } %20, 0
  call void @__clang_call_terminate(ptr %21) #17
  unreachable

22:                                               ; preds = %17, %15, %13
  %23 = load i32, ptr %5, align 4
  ret i32 %23
}

; Function Attrs: mustprogress nounwind uwtable
define linkonce_odr noundef i32 @_ZNK19QBasicAtomicIntegerIiE11loadRelaxedEv(ptr noundef nonnull align 4 dereferenceable(4) %0) #4 comdat align 2 {
  %2 = alloca ptr, align 8
  store ptr %0, ptr %2, align 8
  %3 = load ptr, ptr %2, align 8
  %4 = getelementptr inbounds %class.QBasicAtomicInteger, ptr %3, i32 0, i32 0
  %5 = call noundef i32 @_ZN10QAtomicOpsIiE11loadRelaxedIiEET_RKSt6atomicIS2_E(ptr noundef nonnull align 4 dereferenceable(4) %4) #3
  ret i32 %5
}

; Function Attrs: mustprogress uwtable
define linkonce_odr noundef ptr @_ZN12QMapNodeBase8nextNodeEv(ptr noundef nonnull align 8 dereferenceable(24) %0) #5 comdat align 2 {
  %2 = alloca ptr, align 8
  store ptr %0, ptr %2, align 8
  %3 = load ptr, ptr %2, align 8
  %4 = call noundef ptr @_ZNK12QMapNodeBase8nextNodeEv(ptr noundef nonnull align 8 dereferenceable(24) %3)
  ret ptr %4
}

; Function Attrs: mustprogress nounwind uwtable
define linkonce_odr noundef ptr @_ZNK8QMapDataI7QStringP26MLRenderingParametersFrameE4rootEv(ptr noundef nonnull align 8 dereferenceable(40) %0) #4 comdat align 2 {
  %2 = alloca ptr, align 8
  store ptr %0, ptr %2, align 8
  %3 = load ptr, ptr %2, align 8
  %4 = getelementptr inbounds %struct.QMapDataBase, ptr %3, i32 0, i32 2
  %5 = getelementptr inbounds %struct.QMapNodeBase, ptr %4, i32 0, i32 1
  %6 = load ptr, ptr %5, align 8
  ret ptr %6
}

; Function Attrs: mustprogress nounwind uwtable
define linkonce_odr noundef zeroext i1 @_ZNK9QtPrivate8RefCount8isSharedEv(ptr noundef nonnull align 4 dereferenceable(4) %0) #4 comdat align 2 {
  %2 = alloca ptr, align 8
  %3 = alloca i32, align 4
  store ptr %0, ptr %2, align 8
  %4 = load ptr, ptr %2, align 8
  %5 = getelementptr inbounds %"class.QtPrivate::RefCount", ptr %4, i32 0, i32 0
  %6 = call noundef i32 @_ZNK19QBasicAtomicIntegerIiE11loadRelaxedEv(ptr noundef nonnull align 4 dereferenceable(4) %5) #3
  store i32 %6, ptr %3, align 4
  %7 = load i32, ptr %3, align 4
  %8 = icmp ne i32 %7, 1
  br i1 %8, label %9, label %12

9:                                                ; preds = %1
  %10 = load i32, ptr %3, align 4
  %11 = icmp ne i32 %10, 0
  br label %12

12:                                               ; preds = %9, %1
  %13 = phi i1 [ false, %1 ], [ %11, %9 ]
  ret i1 %13
}

; Function Attrs: mustprogress uwtable
define linkonce_odr noundef ptr @_ZN8QMapNodeI7QStringP26MLRenderingParametersFrameE8nextNodeEv(ptr noundef nonnull align 8 dereferenceable(40) %0) #5 comdat align 2 {
  %2 = alloca ptr, align 8
  store ptr %0, ptr %2, align 8
  %3 = load ptr, ptr %2, align 8
  %4 = call noundef ptr @_ZN12QMapNodeBase8nextNodeEv(ptr noundef nonnull align 8 dereferenceable(24) %3)
  ret ptr %4
}

; Function Attrs: mustprogress nounwind uwtable
define linkonce_odr noundef ptr @_ZN8QMapDataI7QStringP26MLRenderingParametersFrameE3endEv(ptr noundef nonnull align 8 dereferenceable(40) %0) #4 comdat align 2 {
  %2 = alloca ptr, align 8
  store ptr %0, ptr %2, align 8
  %3 = load ptr, ptr %2, align 8
  %4 = getelementptr inbounds %struct.QMapDataBase, ptr %3, i32 0, i32 2
  ret ptr %4
}

; Function Attrs: mustprogress nounwind uwtable
define linkonce_odr void @_ZN4QMapI7QStringP26MLRenderingParametersFrameE8iteratorC2EP8QMapNodeIS0_S2_E(ptr noundef nonnull align 8 dereferenceable(8) %0, ptr noundef %1) unnamed_addr #4 comdat align 2 {
  %3 = alloca ptr, align 8
  %4 = alloca ptr, align 8
  store ptr %0, ptr %3, align 8
  store ptr %1, ptr %4, align 8
  %5 = load ptr, ptr %3, align 8
  %6 = getelementptr inbounds %"class.QMap<QString, MLRenderingParametersFrame *>::iterator", ptr %5, i32 0, i32 0
  %7 = load ptr, ptr %4, align 8
  store ptr %7, ptr %6, align 8
  ret void
}

; Function Attrs: mustprogress uwtable
define linkonce_odr noundef ptr @_ZN8QMapDataI7QStringP26MLRenderingParametersFrameE5beginEv(ptr noundef nonnull align 8 dereferenceable(40) %0) #5 comdat align 2 {
  %2 = alloca ptr, align 8
  %3 = alloca ptr, align 8
  store ptr %0, ptr %3, align 8
  %4 = load ptr, ptr %3, align 8
  %5 = call noundef ptr @_ZNK8QMapDataI7QStringP26MLRenderingParametersFrameE4rootEv(ptr noundef nonnull align 8 dereferenceable(40) %4)
  %6 = icmp ne ptr %5, null
  br i1 %6, label %7, label %10

7:                                                ; preds = %1
  %8 = getelementptr inbounds %struct.QMapDataBase, ptr %4, i32 0, i32 3
  %9 = load ptr, ptr %8, align 8
  store ptr %9, ptr %2, align 8
  br label %12

10:                                               ; preds = %1
  %11 = call noundef ptr @_ZN8QMapDataI7QStringP26MLRenderingParametersFrameE3endEv(ptr noundef nonnull align 8 dereferenceable(40) %4)
  store ptr %11, ptr %2, align 8
  br label %12

12:                                               ; preds = %10, %7
  %13 = load ptr, ptr %2, align 8
  ret ptr %13
}

; Function Attrs: mustprogress uwtable
define linkonce_odr void @_ZN4QMapI7QStringP26MLRenderingParametersFrameE6detachEv(ptr noundef nonnull align 8 dereferenceable(8) %0) #5 comdat align 2 {
  %2 = alloca ptr, align 8
  store ptr %0, ptr %2, align 8
  %3 = load ptr, ptr %2, align 8
  %4 = getelementptr inbounds %class.QMap.10, ptr %3, i32 0, i32 0
  %5 = load ptr, ptr %4, align 8
  %6 = getelementptr inbounds %struct.QMapDataBase, ptr %5, i32 0, i32 0
  %7 = call noundef zeroext i1 @_ZNK9QtPrivate8RefCount8isSharedEv(ptr noundef nonnull align 4 dereferenceable(4) %6) #3
  br i1 %7, label %8, label %9

8:                                                ; preds = %1
  call void @_ZN4QMapI7QStringP26MLRenderingParametersFrameE13detach_helperEv(ptr noundef nonnull align 8 dereferenceable(8) %3)
  br label %9

9:                                                ; preds = %8, %1
  ret void
}

; Function Attrs: mustprogress uwtable
define linkonce_odr noundef nonnull align 8 dereferenceable(8) ptr @_ZN4QMapI7QStringP26MLRenderingParametersFrameE8iteratorppEv(ptr noundef nonnull align 8 dereferenceable(8) %0) #5 comdat align 2 {
  %2 = alloca ptr, align 8
  store ptr %0, ptr %2, align 8
  %3 = load ptr, ptr %2, align 8
  %4 = getelementptr inbounds %"class.QMap<QString, MLRenderingParametersFrame *>::iterator", ptr %3, i32 0, i32 0
  %5 = load ptr, ptr %4, align 8
  %6 = call noundef ptr @_ZN8QMapNodeI7QStringP26MLRenderingParametersFrameE8nextNodeEv(ptr noundef nonnull align 8 dereferenceable(40) %5)
  %7 = getelementptr inbounds %"class.QMap<QString, MLRenderingParametersFrame *>::iterator", ptr %3, i32 0, i32 0
  store ptr %6, ptr %7, align 8
  ret ptr %3
}

; Function Attrs: mustprogress nounwind uwtable
define linkonce_odr noundef nonnull align 8 dereferenceable(8) ptr @_ZNK4QMapI7QStringP26MLRenderingParametersFrameE8iterator5valueEv(ptr noundef nonnull align 8 dereferenceable(8) %0) #4 comdat align 2 {
  %2 = alloca ptr, align 8
  store ptr %0, ptr %2, align 8
  %3 = load ptr, ptr %2, align 8
  %4 = getelementptr inbounds %"class.QMap<QString, MLRenderingParametersFrame *>::iterator", ptr %3, i32 0, i32 0
  %5 = load ptr, ptr %4, align 8
  %6 = getelementptr inbounds %struct.QMapNode.13, ptr %5, i32 0, i32 2
  ret ptr %6
}

; Function Attrs: mustprogress nounwind uwtable
define linkonce_odr noundef zeroext i1 @_ZNK4QMapI7QStringP26MLRenderingParametersFrameE8iteratorneERKS4_(ptr noundef nonnull align 8 dereferenceable(8) %0, ptr noundef nonnull align 8 dereferenceable(8) %1) #4 comdat align 2 {
  %3 = alloca ptr, align 8
  %4 = alloca ptr, align 8
  store ptr %0, ptr %3, align 8
  store ptr %1, ptr %4, align 8
  %5 = load ptr, ptr %3, align 8
  %6 = getelementptr inbounds %"class.QMap<QString, MLRenderingParametersFrame *>::iterator", ptr %5, i32 0, i32 0
  %7 = load ptr, ptr %6, align 8
  %8 = load ptr, ptr %4, align 8
  %9 = getelementptr inbounds %"class.QMap<QString, MLRenderingParametersFrame *>::iterator", ptr %8, i32 0, i32 0
  %10 = load ptr, ptr %9, align 8
  %11 = icmp ne ptr %7, %10
  ret i1 %11
}

; Function Attrs: mustprogress uwtable
define linkonce_odr ptr @_ZN4QMapI7QStringP26MLRenderingParametersFrameE3endEv(ptr noundef nonnull align 8 dereferenceable(8) %0) #5 comdat align 2 {
  %2 = alloca %"class.QMap<QString, MLRenderingParametersFrame *>::iterator", align 8
  %3 = alloca ptr, align 8
  store ptr %0, ptr %3, align 8
  %4 = load ptr, ptr %3, align 8
  call void @_ZN4QMapI7QStringP26MLRenderingParametersFrameE6detachEv(ptr noundef nonnull align 8 dereferenceable(8) %4)
  %5 = getelementptr inbounds %class.QMap.10, ptr %4, i32 0, i32 0
  %6 = load ptr, ptr %5, align 8
  %7 = call noundef ptr @_ZN8QMapDataI7QStringP26MLRenderingParametersFrameE3endEv(ptr noundef nonnull align 8 dereferenceable(40) %6)
  call void @_ZN4QMapI7QStringP26MLRenderingParametersFrameE8iteratorC2EP8QMapNodeIS0_S2_E(ptr noundef nonnull align 8 dereferenceable(8) %2, ptr noundef %7)
  %8 = getelementptr inbounds %"class.QMap<QString, MLRenderingParametersFrame *>::iterator", ptr %2, i32 0, i32 0
  %9 = load ptr, ptr %8, align 8
  ret ptr %9
}

; Function Attrs: mustprogress uwtable
define linkonce_odr ptr @_ZN4QMapI7QStringP26MLRenderingParametersFrameE5beginEv(ptr noundef nonnull align 8 dereferenceable(8) %0) #5 comdat align 2 {
  %2 = alloca %"class.QMap<QString, MLRenderingParametersFrame *>::iterator", align 8
  %3 = alloca ptr, align 8
  store ptr %0, ptr %3, align 8
  %4 = load ptr, ptr %3, align 8
  call void @_ZN4QMapI7QStringP26MLRenderingParametersFrameE6detachEv(ptr noundef nonnull align 8 dereferenceable(8) %4)
  %5 = getelementptr inbounds %class.QMap.10, ptr %4, i32 0, i32 0
  %6 = load ptr, ptr %5, align 8
  %7 = call noundef ptr @_ZN8QMapDataI7QStringP26MLRenderingParametersFrameE5beginEv(ptr noundef nonnull align 8 dereferenceable(40) %6)
  call void @_ZN4QMapI7QStringP26MLRenderingParametersFrameE8iteratorC2EP8QMapNodeIS0_S2_E(ptr noundef nonnull align 8 dereferenceable(8) %2, ptr noundef %7)
  %8 = getelementptr inbounds %"class.QMap<QString, MLRenderingParametersFrame *>::iterator", ptr %2, i32 0, i32 0
  %9 = load ptr, ptr %8, align 8
  ret ptr %9
}

; Function Attrs: mustprogress uwtable
define void @_ZN24MLRenderingParametersTab16updateVisibilityEP9MeshModel(ptr noundef nonnull align 8 dereferenceable(72) %0, ptr noundef %1) #5 align 2 {
  %3 = alloca ptr, align 8
  %4 = alloca ptr, align 8
  %5 = alloca %"class.QMap<QString, MLRenderingParametersFrame *>::iterator", align 8
  %6 = alloca %"class.QMap<QString, MLRenderingParametersFrame *>::iterator", align 8
  store ptr %0, ptr %3, align 8
  store ptr %1, ptr %4, align 8
  %7 = load ptr, ptr %3, align 8
  %8 = getelementptr inbounds %class.MLRenderingParametersTab, ptr %7, i32 0, i32 2
  %9 = call ptr @_ZN4QMapI7QStringP26MLRenderingParametersFrameE5beginEv(ptr noundef nonnull align 8 dereferenceable(8) %8)
  %10 = getelementptr inbounds %"class.QMap<QString, MLRenderingParametersFrame *>::iterator", ptr %5, i32 0, i32 0
  store ptr %9, ptr %10, align 8
  br label %11

11:                                               ; preds = %23, %2
  %12 = getelementptr inbounds %class.MLRenderingParametersTab, ptr %7, i32 0, i32 2
  %13 = call ptr @_ZN4QMapI7QStringP26MLRenderingParametersFrameE3endEv(ptr noundef nonnull align 8 dereferenceable(8) %12)
  %14 = getelementptr inbounds %"class.QMap<QString, MLRenderingParametersFrame *>::iterator", ptr %6, i32 0, i32 0
  store ptr %13, ptr %14, align 8
  %15 = call noundef zeroext i1 @_ZNK4QMapI7QStringP26MLRenderingParametersFrameE8iteratorneERKS4_(ptr noundef nonnull align 8 dereferenceable(8) %5, ptr noundef nonnull align 8 dereferenceable(8) %6)
  br i1 %15, label %16, label %25

16:                                               ; preds = %11
  %17 = call noundef nonnull align 8 dereferenceable(8) ptr @_ZNK4QMapI7QStringP26MLRenderingParametersFrameE8iterator5valueEv(ptr noundef nonnull align 8 dereferenceable(8) %5)
  %18 = load ptr, ptr %17, align 8
  %19 = load ptr, ptr %4, align 8
  %20 = load ptr, ptr %18, align 8
  %21 = getelementptr inbounds ptr, ptr %20, i64 58
  %22 = load ptr, ptr %21, align 8
  call void %22(ptr noundef nonnull align 8 dereferenceable(52) %18, ptr noundef %19)
  br label %23

23:                                               ; preds = %16
  %24 = call noundef nonnull align 8 dereferenceable(8) ptr @_ZN4QMapI7QStringP26MLRenderingParametersFrameE8iteratorppEv(ptr noundef nonnull align 8 dereferenceable(8) %5)
  br label %11, !llvm.loop !31

25:                                               ; preds = %11
  ret void
}