; Function Attrs: mustprogress uwtable
define void @_ZN24MLRenderingParametersTab16updateVisibilityEP9MeshModel(ptr noundef nonnull align 8 dereferenceable(72) %0, ptr noundef %1) local_unnamed_addr #3 align 2 personality ptr @__gxx_personality_v0 {
  %3 = getelementptr inbounds i8, ptr %0, i64 56
  %4 = load ptr, ptr %3, align 8
  %5 = load atomic i32, ptr %4 monotonic, align 4
  %6 = icmp ugt i32 %5, 1
  br i1 %6, label %7, label %_ZN4QMapI7QStringP26MLRenderingParametersFrameE5beginEv.exit

7:                                                ; preds = %2
  tail call void @_ZN4QMapI7QStringP26MLRenderingParametersFrameE13detach_helperEv(ptr noundef nonnull align 8 dereferenceable(8) %3)
  %.pre.i = load ptr, ptr %3, align 8
  br label %_ZN4QMapI7QStringP26MLRenderingParametersFrameE5beginEv.exit

_ZN4QMapI7QStringP26MLRenderingParametersFrameE5beginEv.exit: ; preds = %2, %7
  %8 = phi ptr [ %4, %2 ], [ %.pre.i, %7 ]
  %9 = getelementptr inbounds i8, ptr %8, i64 16
  %10 = load ptr, ptr %9, align 8
  %.not.i.i = icmp eq ptr %10, null
  %11 = getelementptr inbounds i8, ptr %8, i64 32
  %12 = load ptr, ptr %11, align 8
  %13 = getelementptr inbounds i8, ptr %8, i64 8
  %.0.i.i = select i1 %.not.i.i, ptr %13, ptr %12
  br label %14

14:                                               ; preds = %21, %_ZN4QMapI7QStringP26MLRenderingParametersFrameE5beginEv.exit
  %15 = phi ptr [ %8, %_ZN4QMapI7QStringP26MLRenderingParametersFrameE5beginEv.exit ], [ %.pre, %21 ]
  %.sroa.03.0 = phi ptr [ %.0.i.i, %_ZN4QMapI7QStringP26MLRenderingParametersFrameE5beginEv.exit ], [ %27, %21 ]
  %16 = load atomic i32, ptr %15 monotonic, align 4
  %17 = icmp ugt i32 %16, 1
  br i1 %17, label %18, label %_ZN4QMapI7QStringP26MLRenderingParametersFrameE3endEv.exit

18:                                               ; preds = %14
  tail call void @_ZN4QMapI7QStringP26MLRenderingParametersFrameE13detach_helperEv(ptr noundef nonnull align 8 dereferenceable(8) %3)
  %.pre.i2 = load ptr, ptr %3, align 8
  br label %_ZN4QMapI7QStringP26MLRenderingParametersFrameE3endEv.exit

_ZN4QMapI7QStringP26MLRenderingParametersFrameE3endEv.exit: ; preds = %14, %18
  %19 = phi ptr [ %15, %14 ], [ %.pre.i2, %18 ]
  %20 = getelementptr inbounds i8, ptr %19, i64 8
  %.not = icmp eq ptr %.sroa.03.0, %20
  br i1 %.not, label %28, label %21

21:                                               ; preds = %_ZN4QMapI7QStringP26MLRenderingParametersFrameE3endEv.exit
  %22 = getelementptr inbounds i8, ptr %.sroa.03.0, i64 32
  %23 = load ptr, ptr %22, align 8
  %24 = load ptr, ptr %23, align 8
  %25 = getelementptr inbounds i8, ptr %24, i64 464
  %26 = load ptr, ptr %25, align 8
  tail call void %26(ptr noundef nonnull align 8 dereferenceable(52) %23, ptr noundef %1)
  %27 = tail call noundef ptr @_ZNK12QMapNodeBase8nextNodeEv(ptr noundef nonnull align 8 dereferenceable(24) %.sroa.03.0)
  %.pre = load ptr, ptr %3, align 8
  br label %14, !llvm.loop !98

28:                                               ; preds = %_ZN4QMapI7QStringP26MLRenderingParametersFrameE3endEv.exit
  ret void
}